(dp0
Va
p1
(lp2
I1
aF2.0
ac__builtin__
complex
p3
(F3.0
F4.0
tp4
Rp5
asVb
p6
(Vcharacter string
p7
c_codecs
encode
p8
(Vbyte string
p9
Vlatin1
p10
tp11
Rp12
tp13
sVc
p14
c__builtin__
set
p15
((lp16
NaI01
aI00
atp17
Rp18
s.